target datalayout = "e-m:e-p270:32:32-p271:32:32-p272:64:64-i64:64-i128:128-f80:128-n8:16:32:64-S128"
target triple = "x86_64-pc-linux-gnu"

%struct.Aig_Obj_t_ = type { %union.anon, ptr, ptr, i64, i32, i32, %union.anon.0 }
%union.anon = type { ptr }
%union.anon.0 = type { ptr }
%struct.Aig_Man_t_ = type { ptr, ptr, ptr, ptr, ptr, ptr, ptr, %struct.Aig_Obj_t_, i32, i32, i32, i32, i32, i32, [7 x i32], i32, ptr, i32, ptr, i32, ptr, i32, i32, i32, ptr, i32, i32, i32, i32, i32, ptr, ptr, i32, ptr, ptr, i32, ptr, ptr, i32, i32, i32, ptr, ptr, ptr, ptr, ptr, ptr, ptr, ptr, ptr, ptr, ptr, ptr, ptr, ptr, i32, ptr, ptr, ptr, ptr, i32, i64, i64, i64, ptr, ptr }
%struct.Vec_Ptr_t_ = type { i32, i32, ptr }

@.str = private unnamed_addr constant [44 x i8] c"Obj %d is not an AND but it has a repr %d.\0A\00", align 1
@.str.1 = private unnamed_addr constant [36 x i8] c"Obj %d has repr %d with a repr %d.\0A\00", align 1
@.str.2 = private unnamed_addr constant [39 x i8] c"Representive verification successful.\0A\00", align 1
@.str.3 = private unnamed_addr constant [35 x i8] c"Representive verification FAILED.\0A\00", align 1
@.str.4 = private unnamed_addr constant [41 x i8] c"Const0 nodes = %d.  ConstCI nodes = %d.\0A\00", align 1

; Function Attrs: nounwind uwtable
define internal i32 @Aig_ObjIsCi(ptr noundef %0) #0 {
  %2 = alloca ptr, align 8
  store ptr %0, ptr %2, align 8
  %3 = load ptr, ptr %2, align 8
  %4 = getelementptr inbounds %struct.Aig_Obj_t_, ptr %3, i32 0, i32 3
  %5 = load i64, ptr %4, align 8
  %6 = and i64 %5, 7
  %7 = trunc i64 %6 to i32
  %8 = icmp eq i32 %7, 2
  %9 = zext i1 %8 to i32
  ret i32 %9
}

; Function Attrs: nounwind uwtable
define internal ptr @Aig_ManConst1(ptr noundef %0) #0 {
  %2 = alloca ptr, align 8
  store ptr %0, ptr %2, align 8
  %3 = load ptr, ptr %2, align 8
  %4 = getelementptr inbounds %struct.Aig_Man_t_, ptr %3, i32 0, i32 6
  %5 = load ptr, ptr %4, align 8
  ret ptr %5
}

; Function Attrs: nounwind uwtable
define internal i32 @Aig_ObjId(ptr noundef %0) #0 {
  %2 = alloca ptr, align 8
  store ptr %0, ptr %2, align 8
  %3 = load ptr, ptr %2, align 8
  %4 = getelementptr inbounds %struct.Aig_Obj_t_, ptr %3, i32 0, i32 5
  %5 = load i32, ptr %4, align 4
  ret i32 %5
}

; Function Attrs: nounwind uwtable
define internal i32 @Aig_ObjIsNode(ptr noundef %0) #0 {
  %2 = alloca ptr, align 8
  store ptr %0, ptr %2, align 8
  %3 = load ptr, ptr %2, align 8
  %4 = getelementptr inbounds %struct.Aig_Obj_t_, ptr %3, i32 0, i32 3
  %5 = load i64, ptr %4, align 8
  %6 = and i64 %5, 7
  %7 = trunc i64 %6 to i32
  %8 = icmp eq i32 %7, 5
  br i1 %8, label %16, label %9

9:                                                ; preds = %1
  %10 = load ptr, ptr %2, align 8
  %11 = getelementptr inbounds %struct.Aig_Obj_t_, ptr %10, i32 0, i32 3
  %12 = load i64, ptr %11, align 8
  %13 = and i64 %12, 7
  %14 = trunc i64 %13 to i32
  %15 = icmp eq i32 %14, 6
  br label %16

16:                                               ; preds = %9, %1
  %17 = phi i1 [ true, %1 ], [ %15, %9 ]
  %18 = zext i1 %17 to i32
  ret i32 %18
}

; Function Attrs: nounwind uwtable
define internal ptr @Aig_ObjRepr(ptr noundef %0, ptr noundef %1) #0 {
  %3 = alloca ptr, align 8
  %4 = alloca ptr, align 8
  store ptr %0, ptr %3, align 8
  store ptr %1, ptr %4, align 8
  %5 = load ptr, ptr %3, align 8
  %6 = getelementptr inbounds %struct.Aig_Man_t_, ptr %5, i32 0, i32 31
  %7 = load ptr, ptr %6, align 8
  %8 = icmp ne ptr %7, null
  br i1 %8, label %9, label %19

9:                                                ; preds = %2
  %10 = load ptr, ptr %3, align 8
  %11 = getelementptr inbounds %struct.Aig_Man_t_, ptr %10, i32 0, i32 31
  %12 = load ptr, ptr %11, align 8
  %13 = load ptr, ptr %4, align 8
  %14 = getelementptr inbounds %struct.Aig_Obj_t_, ptr %13, i32 0, i32 5
  %15 = load i32, ptr %14, align 4
  %16 = sext i32 %15 to i64
  %17 = getelementptr inbounds ptr, ptr %12, i64 %16
  %18 = load ptr, ptr %17, align 8
  br label %20

19:                                               ; preds = %2
  br label %20

20:                                               ; preds = %19, %9
  %21 = phi ptr [ %18, %9 ], [ null, %19 ]
  ret ptr %21
}

; Function Attrs: nounwind uwtable
define internal ptr @Vec_PtrEntry(ptr noundef %0, i32 noundef %1) #0 {
  %3 = alloca ptr, align 8
  %4 = alloca i32, align 4
  store ptr %0, ptr %3, align 8
  store i32 %1, ptr %4, align 4
  %5 = load ptr, ptr %3, align 8
  %6 = getelementptr inbounds %struct.Vec_Ptr_t_, ptr %5, i32 0, i32 2
  %7 = load ptr, ptr %6, align 8
  %8 = load i32, ptr %4, align 4
  %9 = sext i32 %8 to i64
  %10 = getelementptr inbounds ptr, ptr %7, i64 %9
  %11 = load ptr, ptr %10, align 8
  ret ptr %11
}

; Function Attrs: nounwind uwtable
define internal i32 @Vec_PtrSize(ptr noundef %0) #0 {
  %2 = alloca ptr, align 8
  store ptr %0, ptr %2, align 8
  %3 = load ptr, ptr %2, align 8
  %4 = getelementptr inbounds %struct.Vec_Ptr_t_, ptr %3, i32 0, i32 1
  %5 = load i32, ptr %4, align 4
  ret i32 %5
}

; Function Attrs: nounwind uwtable
define void @Aig_ManCheckReprs(ptr noundef %0) #0 {
  %2 = alloca ptr, align 8
  %3 = alloca i32, align 4
  %4 = alloca ptr, align 8
  %5 = alloca i32, align 4
  %6 = alloca i32, align 4
  %7 = alloca i32, align 4
  %8 = alloca i32, align 4
  store ptr %0, ptr %2, align 8
  store i32 0, ptr %3, align 4
  store i32 0, ptr %6, align 4
  store i32 0, ptr %7, align 4
  store i32 0, ptr %8, align 4
  store i32 0, ptr %5, align 4
  br label %9

9:                                                ; preds = %68, %1
  %10 = load i32, ptr %5, align 4
  %11 = load ptr, ptr %2, align 8
  %12 = getelementptr inbounds %struct.Aig_Man_t_, ptr %11, i32 0, i32 4
  %13 = load ptr, ptr %12, align 8
  %14 = call i32 @Vec_PtrSize(ptr noundef %13)
  %15 = icmp slt i32 %10, %14
  br i1 %15, label %16, label %22

16:                                               ; preds = %9
  %17 = load ptr, ptr %2, align 8
  %18 = getelementptr inbounds %struct.Aig_Man_t_, ptr %17, i32 0, i32 4
  %19 = load ptr, ptr %18, align 8
  %20 = load i32, ptr %5, align 4
  %21 = call ptr @Vec_PtrEntry(ptr noundef %19, i32 noundef %20)
  store ptr %21, ptr %4, align 8
  br label %22

22:                                               ; preds = %16, %9
  %23 = phi i1 [ false, %9 ], [ true, %16 ]
  br i1 %23, label %24, label %71

24:                                               ; preds = %22
  %25 = load ptr, ptr %4, align 8
  %26 = icmp eq ptr %25, null
  br i1 %26, label %27, label %28

27:                                               ; preds = %24
  br label %67

28:                                               ; preds = %24
  %29 = load ptr, ptr %2, align 8
  %30 = load ptr, ptr %4, align 8
  %31 = call ptr @Aig_ObjRepr(ptr noundef %29, ptr noundef %30)
  %32 = icmp eq ptr %31, null
  br i1 %32, label %33, label %34

33:                                               ; preds = %28
  br label %68

34:                                               ; preds = %28
  %35 = load ptr, ptr %4, align 8
  %36 = call i32 @Aig_ObjIsNode(ptr noundef %35)
  %37 = icmp ne i32 %36, 0
  br i1 %37, label %45, label %38

38:                                               ; preds = %34
  %39 = load i32, ptr %5, align 4
  %40 = load ptr, ptr %2, align 8
  %41 = load ptr, ptr %4, align 8
  %42 = call ptr @Aig_ObjRepr(ptr noundef %40, ptr noundef %41)
  %43 = call i32 @Aig_ObjId(ptr noundef %42)
  %44 = call i32 (ptr, ...) @printf(ptr noundef @.str, i32 noundef %39, i32 noundef %43)
  store i32 1, ptr %6, align 4
  br label %66

45:                                               ; preds = %34
  %46 = load ptr, ptr %2, align 8
  %47 = load ptr, ptr %2, align 8
  %48 = load ptr, ptr %4, align 8
  %49 = call ptr @Aig_ObjRepr(ptr noundef %47, ptr noundef %48)
  %50 = call ptr @Aig_ObjRepr(ptr noundef %46, ptr noundef %49)
  %51 = icmp ne ptr %50, null
  br i1 %51, label %52, label %65

52:                                               ; preds = %45
  %53 = load i32, ptr %5, align 4
  %54 = load ptr, ptr %2, align 8
  %55 = load ptr, ptr %4, align 8
  %56 = call ptr @Aig_ObjRepr(ptr noundef %54, ptr noundef %55)
  %57 = call i32 @Aig_ObjId(ptr noundef %56)
  %58 = load ptr, ptr %2, align 8
  %59 = load ptr, ptr %2, align 8
  %60 = load ptr, ptr %4, align 8
  %61 = call ptr @Aig_ObjRepr(ptr noundef %59, ptr noundef %60)
  %62 = call ptr @Aig_ObjRepr(ptr noundef %58, ptr noundef %61)
  %63 = call i32 @Aig_ObjId(ptr noundef %62)
  %64 = call i32 (ptr, ...) @printf(ptr noundef @.str.1, i32 noundef %53, i32 noundef %57, i32 noundef %63)
  store i32 1, ptr %6, align 4
  br label %65

65:                                               ; preds = %52, %45
  br label %66

66:                                               ; preds = %65, %38
  br label %67

67:                                               ; preds = %66, %27
  br label %68

68:                                               ; preds = %67, %33
  %69 = load i32, ptr %5, align 4
  %70 = add nsw i32 %69, 1
  store i32 %70, ptr %5, align 4
  br label %9, !llvm.loop !7

71:                                               ; preds = %22
  %72 = load i32, ptr %6, align 4
  %73 = icmp ne i32 %72, 0
  br i1 %73, label %76, label %74

74:                                               ; preds = %71
  %75 = call i32 (ptr, ...) @printf(ptr noundef @.str.2)
  br label %78

76:                                               ; preds = %71
  %77 = call i32 (ptr, ...) @printf(ptr noundef @.str.3)
  br label %78

78:                                               ; preds = %76, %74
  %79 = load i32, ptr %3, align 4
  %80 = icmp ne i32 %79, 0
  br i1 %80, label %82, label %81

81:                                               ; preds = %78
  br label %135

82:                                               ; preds = %78
  store i32 0, ptr %5, align 4
  br label %83

83:                                               ; preds = %128, %82
  %84 = load i32, ptr %5, align 4
  %85 = load ptr, ptr %2, align 8
  %86 = getelementptr inbounds %struct.Aig_Man_t_, ptr %85, i32 0, i32 4
  %87 = load ptr, ptr %86, align 8
  %88 = call i32 @Vec_PtrSize(ptr noundef %87)
  %89 = icmp slt i32 %84, %88
  br i1 %89, label %90, label %96

90:                                               ; preds = %83
  %91 = load ptr, ptr %2, align 8
  %92 = getelementptr inbounds %struct.Aig_Man_t_, ptr %91, i32 0, i32 4
  %93 = load ptr, ptr %92, align 8
  %94 = load i32, ptr %5, align 4
  %95 = call ptr @Vec_PtrEntry(ptr noundef %93, i32 noundef %94)
  store ptr %95, ptr %4, align 8
  br label %96

96:                                               ; preds = %90, %83
  %97 = phi i1 [ false, %83 ], [ true, %90 ]
  br i1 %97, label %98, label %131

98:                                               ; preds = %96
  %99 = load ptr, ptr %4, align 8
  %100 = icmp eq ptr %99, null
  br i1 %100, label %101, label %102

101:                                              ; preds = %98
  br label %127

102:                                              ; preds = %98
  %103 = load ptr, ptr %2, align 8
  %104 = load ptr, ptr %4, align 8
  %105 = call ptr @Aig_ObjRepr(ptr noundef %103, ptr noundef %104)
  %106 = load ptr, ptr %2, align 8
  %107 = call ptr @Aig_ManConst1(ptr noundef %106)
  %108 = icmp eq ptr %105, %107
  br i1 %108, label %109, label %112

109:                                              ; preds = %102
  %110 = load i32, ptr %7, align 4
  %111 = add nsw i32 %110, 1
  store i32 %111, ptr %7, align 4
  br label %112

112:                                              ; preds = %109, %102
  %113 = load ptr, ptr %2, align 8
  %114 = load ptr, ptr %4, align 8
  %115 = call ptr @Aig_ObjRepr(ptr noundef %113, ptr noundef %114)
  %116 = icmp ne ptr %115, null
  br i1 %116, label %117, label %126

117:                                              ; preds = %112
  %118 = load ptr, ptr %2, align 8
  %119 = load ptr, ptr %4, align 8
  %120 = call ptr @Aig_ObjRepr(ptr noundef %118, ptr noundef %119)
  %121 = call i32 @Aig_ObjIsCi(ptr noundef %120)
  %122 = icmp ne i32 %121, 0
  br i1 %122, label %123, label %126

123:                                              ; preds = %117
  %124 = load i32, ptr %8, align 4
  %125 = add nsw i32 %124, 1
  store i32 %125, ptr %8, align 4
  br label %126

126:                                              ; preds = %123, %117, %112
  br label %127

127:                                              ; preds = %126, %101
  br label %128

128:                                              ; preds = %127
  %129 = load i32, ptr %5, align 4
  %130 = add nsw i32 %129, 1
  store i32 %130, ptr %5, align 4
  br label %83, !llvm.loop !8

131:                                              ; preds = %96
  %132 = load i32, ptr %7, align 4
  %133 = load i32, ptr %8, align 4
  %134 = call i32 (ptr, ...) @printf(ptr noundef @.str.4, i32 noundef %132, i32 noundef %133)
  br label %135

135:                                              ; preds = %131, %81
  ret void
}