; Function Attrs: nofree nounwind uwtable
define void @Aig_ManCheckReprs(ptr noundef readonly captures(none) %0) local_unnamed_addr #4 {
  %2 = getelementptr inbounds nuw i8, ptr %0, i64 32
  %3 = load ptr, ptr %2, align 8
  %4 = getelementptr i8, ptr %3, i64 4
  %.val76 = load i32, ptr %4, align 4
  %5 = icmp sgt i32 %.val76, 0
  br i1 %5, label %.lr.ph, label %.critedge.thread

.lr.ph:                                           ; preds = %1
  %6 = getelementptr i8, ptr %0, i64 256
  br label %7

7:                                                ; preds = %.lr.ph, %Aig_ObjRepr.exit.thread
  %indvars.iv = phi i64 [ 0, %.lr.ph ], [ %indvars.iv.next, %Aig_ObjRepr.exit.thread ]
  %8 = phi ptr [ %3, %.lr.ph ], [ %34, %Aig_ObjRepr.exit.thread ]
  %.04378 = phi i32 [ 0, %.lr.ph ], [ %.144, %Aig_ObjRepr.exit.thread ]
  %9 = getelementptr i8, ptr %8, i64 8
  %.val52 = load ptr, ptr %9, align 8
  %10 = getelementptr inbounds nuw ptr, ptr %.val52, i64 %indvars.iv
  %11 = load ptr, ptr %10, align 8
  %12 = icmp eq ptr %11, null
  br i1 %12, label %Aig_ObjRepr.exit.thread, label %13

13:                                               ; preds = %7
  %.val59 = load ptr, ptr %6, align 8
  %.not.i = icmp eq ptr %.val59, null
  br i1 %.not.i, label %Aig_ObjRepr.exit.thread, label %Aig_ObjRepr.exit

Aig_ObjRepr.exit:                                 ; preds = %13
  %14 = getelementptr inbounds nuw i8, ptr %11, i64 36
  %15 = load i32, ptr %14, align 4
  %16 = sext i32 %15 to i64
  %17 = getelementptr inbounds ptr, ptr %.val59, i64 %16
  %18 = load ptr, ptr %17, align 8
  %19 = icmp eq ptr %18, null
  br i1 %19, label %Aig_ObjRepr.exit.thread, label %20

20:                                               ; preds = %Aig_ObjRepr.exit
  %21 = getelementptr i8, ptr %11, i64 24
  %.val60 = load i64, ptr %21, align 8
  %22 = trunc i64 %.val60 to i32
  %23 = and i32 %22, 7
  %24 = add nsw i32 %23, -7
  %narrow.i = icmp ult i32 %24, -2
  %25 = getelementptr i8, ptr %18, i64 36
  %.val61 = load i32, ptr %25, align 4
  br i1 %narrow.i, label %Aig_ObjRepr.exit65, label %Aig_ObjRepr.exit69

Aig_ObjRepr.exit65:                               ; preds = %20
  %26 = trunc nuw nsw i64 %indvars.iv to i32
  %27 = tail call i32 (ptr, ...) @printf(ptr noundef nonnull dereferenceable(1) @.str, i32 noundef %26, i32 noundef %.val61)
  br label %Aig_ObjRepr.exit.thread

Aig_ObjRepr.exit69:                               ; preds = %20
  %28 = sext i32 %.val61 to i64
  %29 = getelementptr inbounds ptr, ptr %.val59, i64 %28
  %30 = load ptr, ptr %29, align 8
  %.not51 = icmp eq ptr %30, null
  br i1 %.not51, label %Aig_ObjRepr.exit.thread, label %Aig_ObjRepr.exit75

Aig_ObjRepr.exit75:                               ; preds = %Aig_ObjRepr.exit69
  %31 = getelementptr i8, ptr %30, i64 36
  %.val63 = load i32, ptr %31, align 4
  %32 = trunc nuw nsw i64 %indvars.iv to i32
  %33 = tail call i32 (ptr, ...) @printf(ptr noundef nonnull dereferenceable(1) @.str.1, i32 noundef %32, i32 noundef %.val61, i32 noundef %.val63)
  br label %Aig_ObjRepr.exit.thread

Aig_ObjRepr.exit.thread:                          ; preds = %13, %7, %Aig_ObjRepr.exit69, %Aig_ObjRepr.exit75, %Aig_ObjRepr.exit65, %Aig_ObjRepr.exit
  %.144 = phi i32 [ %.04378, %7 ], [ %.04378, %Aig_ObjRepr.exit ], [ 1, %Aig_ObjRepr.exit75 ], [ %.04378, %Aig_ObjRepr.exit69 ], [ 1, %Aig_ObjRepr.exit65 ], [ %.04378, %13 ]
  %indvars.iv.next = add nuw nsw i64 %indvars.iv, 1
  %34 = load ptr, ptr %2, align 8
  %35 = getelementptr i8, ptr %34, i64 4
  %.val = load i32, ptr %35, align 4
  %36 = sext i32 %.val to i64
  %37 = icmp slt i64 %indvars.iv.next, %36
  br i1 %37, label %7, label %.critedge, !llvm.loop !7

.critedge:                                        ; preds = %Aig_ObjRepr.exit.thread
  %38 = icmp eq i32 %.144, 0
  %spec.select = select i1 %38, ptr @str, ptr @str.1
  br label %.critedge.thread

.critedge.thread:                                 ; preds = %.critedge, %1
  %str.sink = phi ptr [ @str, %1 ], [ %spec.select, %.critedge ]
  %puts = tail call i32 @puts(ptr nonnull dereferenceable(1) %str.sink)
  ret void
}